; Function Attrs: mustprogress uwtable
define hidden void @_ZN3sls7context13register_termEP4expr(ptr noundef nonnull readonly align 8 captures(none) dereferenceable(321) %0, ptr noundef %1) local_unnamed_addr #4 align 2 {
  %3 = getelementptr inbounds nuw i8, ptr %0, i64 16
  %4 = load ptr, ptr %3, align 8, !tbaa !49
  %5 = icmp eq ptr %4, null
  br i1 %5, label %._crit_edge, label %_ZNK17scoped_ptr_vectorIN3sls6pluginEE3endEv.exit

_ZNK17scoped_ptr_vectorIN3sls6pluginEE3endEv.exit: ; preds = %2
  %6 = getelementptr inbounds i8, ptr %4, i64 -4
  %7 = load i32, ptr %6, align 4, !tbaa !58
  %8 = zext i32 %7 to i64
  %9 = getelementptr inbounds nuw ptr, ptr %4, i64 %8
  %.not12 = icmp eq i32 %7, 0
  br i1 %.not12, label %._crit_edge, label %.lr.ph

._crit_edge:                                      ; preds = %15, %2, %_ZNK17scoped_ptr_vectorIN3sls6pluginEE3endEv.exit
  ret void

.lr.ph:                                           ; preds = %_ZNK17scoped_ptr_vectorIN3sls6pluginEE3endEv.exit, %15
  %.013 = phi ptr [ %16, %15 ], [ %4, %_ZNK17scoped_ptr_vectorIN3sls6pluginEE3endEv.exit ]
  %10 = load ptr, ptr %.013, align 8, !tbaa !70
  %.not11 = icmp eq ptr %10, null
  br i1 %.not11, label %15, label %11

11:                                               ; preds = %.lr.ph
  %12 = load ptr, ptr %10, align 8, !tbaa !3
  %13 = getelementptr inbounds nuw i8, ptr %12, i64 24
  %14 = load ptr, ptr %13, align 8
  tail call void %14(ptr noundef nonnull align 8 dereferenceable(28) %10, ptr noundef %1)
  br label %15

15:                                               ; preds = %11, %.lr.ph
  %16 = getelementptr inbounds nuw i8, ptr %.013, i64 8
  %.not = icmp eq ptr %16, %9
  br i1 %.not, label %._crit_edge, label %.lr.ph
}